; Function Attrs: mustprogress uwtable
define noundef zeroext i1 @_ZNK6google8protobuf11MessageLite32SerializePartialToZeroCopyStreamEPNS0_2io20ZeroCopyOutputStreamE(ptr noundef nonnull align 8 dereferenceable(16) %0, ptr noundef %1) local_unnamed_addr #3 align 2 personality ptr @__gxx_personality_v0 {
  %3 = alloca %"class.google::protobuf::internal::LogMessage", align 8
  %4 = alloca %"class.std::__cxx11::basic_string", align 8
  %5 = alloca %"class.google::protobuf::internal::LogFinisher", align 1
  %6 = alloca %"class.google::protobuf::io::EpsCopyOutputStream", align 8
  %7 = load ptr, ptr %0, align 8
  %8 = getelementptr inbounds i8, ptr %7, i64 72
  %9 = load ptr, ptr %8, align 8
  %10 = tail call noundef i64 %9(ptr noundef nonnull align 8 dereferenceable(16) %0)
  %11 = icmp ugt i64 %10, 2147483647
  br i1 %11, label %12, label %29

12:                                               ; preds = %2
  call void @_ZN6google8protobuf8internal10LogMessageC1ENS0_8LogLevelEPKci(ptr noundef nonnull align 8 dereferenceable(56) %3, i32 noundef 2, ptr noundef nonnull @.str.2, i32 noundef 410)
  %13 = load ptr, ptr %0, align 8
  %14 = getelementptr inbounds i8, ptr %13, i64 16
  %15 = load ptr, ptr %14, align 8
  invoke void %15(ptr dead_on_unwind nonnull writable sret(%"class.std::__cxx11::basic_string") align 8 %4, ptr noundef nonnull align 8 dereferenceable(16) %0)
          to label %16 unwind label %24

16:                                               ; preds = %12
  %17 = invoke noundef nonnull align 8 dereferenceable(56) ptr @_ZN6google8protobuf8internal10LogMessagelsERKNSt7__cxx1112basic_stringIcSt11char_traitsIcESaIcEEE(ptr noundef nonnull align 8 dereferenceable(56) %3, ptr noundef nonnull align 8 dereferenceable(32) %4)
          to label %18 unwind label %26

18:                                               ; preds = %16
  %19 = invoke noundef nonnull align 8 dereferenceable(56) ptr @_ZN6google8protobuf8internal10LogMessagelsEPKc(ptr noundef nonnull align 8 dereferenceable(56) %17, ptr noundef nonnull @.str.7)
          to label %20 unwind label %26

20:                                               ; preds = %18
  %21 = invoke noundef nonnull align 8 dereferenceable(56) ptr @_ZN6google8protobuf8internal10LogMessagelsEm(ptr noundef nonnull align 8 dereferenceable(56) %19, i64 noundef %10)
          to label %22 unwind label %26

22:                                               ; preds = %20
  invoke void @_ZN6google8protobuf8internal11LogFinisheraSERNS1_10LogMessageE(ptr noundef nonnull align 1 dereferenceable(1) %5, ptr noundef nonnull align 8 dereferenceable(56) %21)
          to label %23 unwind label %26

23:                                               ; preds = %22
  call void @_ZNSt7__cxx1112basic_stringIcSt11char_traitsIcESaIcEED1Ev(ptr noundef nonnull align 8 dereferenceable(32) %4) #15
  call void @_ZN6google8protobuf8internal10LogMessageD1Ev(ptr noundef nonnull align 8 dereferenceable(56) %3) #15
  br label %45

24:                                               ; preds = %12
  %25 = landingpad { ptr, i32 }
          cleanup
  br label %28

26:                                               ; preds = %22, %20, %18, %16
  %27 = landingpad { ptr, i32 }
          cleanup
  call void @_ZNSt7__cxx1112basic_stringIcSt11char_traitsIcESaIcEED1Ev(ptr noundef nonnull align 8 dereferenceable(32) %4) #15
  br label %28

28:                                               ; preds = %26, %24
  %.pn = phi { ptr, i32 } [ %27, %26 ], [ %25, %24 ]
  call void @_ZN6google8protobuf8internal10LogMessageD1Ev(ptr noundef nonnull align 8 dereferenceable(56) %3) #15
  resume { ptr, i32 } %.pn

29:                                               ; preds = %2
  %30 = load atomic i8, ptr @_ZN6google8protobuf2io17CodedOutputStream36default_serialization_deterministic_E monotonic, align 1
  %31 = and i8 %30, 1
  %32 = getelementptr inbounds i8, ptr %6, i64 16
  store ptr %32, ptr %6, align 8
  %33 = getelementptr inbounds i8, ptr %6, i64 8
  store ptr %32, ptr %33, align 8
  %34 = getelementptr inbounds i8, ptr %6, i64 48
  store ptr %1, ptr %34, align 8
  %35 = getelementptr inbounds i8, ptr %6, i64 56
  store i8 0, ptr %35, align 8
  %36 = getelementptr inbounds i8, ptr %6, i64 57
  store i8 0, ptr %36, align 1
  %37 = getelementptr inbounds i8, ptr %6, i64 58
  store i8 %31, ptr %37, align 2
  %38 = load ptr, ptr %0, align 8
  %39 = getelementptr inbounds i8, ptr %38, i64 96
  %40 = load ptr, ptr %39, align 8
  %41 = call noundef ptr %40(ptr noundef nonnull align 8 dereferenceable(16) %0, ptr noundef nonnull %32, ptr noundef nonnull %6)
  %42 = call noundef ptr @_ZN6google8protobuf2io19EpsCopyOutputStream4TrimEPh(ptr noundef nonnull align 8 dereferenceable(59) %6, ptr noundef %41)
  %43 = load i8, ptr %35, align 8
  %44 = trunc i8 %43 to i1
  %not. = xor i1 %44, true
  br label %45

45:                                               ; preds = %29, %23
  %.07 = phi i1 [ false, %23 ], [ %not., %29 ]
  ret i1 %.07
}